target datalayout = "e-m:e-p270:32:32-p271:32:32-p272:64:64-i64:64-i128:128-f80:128-n8:16:32:64-S128"
target triple = "x86_64-pc-linux-gnu"

%struct.pmix_tma = type { ptr, ptr, ptr, ptr, ptr, ptr, ptr, ptr }
%struct.pmix_regattr_t = type { ptr, [512 x i8], i16, ptr }

; Function Attrs: inlinehint nounwind uwtable
define internal void @pmix_strncpy(ptr noundef %0, ptr noundef %1, i64 noundef %2) #1 {
  %4 = alloca ptr, align 8
  %5 = alloca ptr, align 8
  %6 = alloca i64, align 8
  %7 = alloca i64, align 8
  store ptr %0, ptr %4, align 8, !tbaa !3
  store ptr %1, ptr %5, align 8, !tbaa !3
  store i64 %2, ptr %6, align 8, !tbaa !30
  call void @llvm.lifetime.start.p0(i64 8, ptr %7) #15
  store i64 0, ptr %7, align 8, !tbaa !30
  br label %8

8:                                                ; preds = %22, %3
  %9 = load i64, ptr %7, align 8, !tbaa !30
  %10 = load i64, ptr %6, align 8, !tbaa !30
  %11 = icmp ult i64 %9, %10
  br i1 %11, label %12, label %29

12:                                               ; preds = %8
  %13 = load ptr, ptr %5, align 8, !tbaa !3
  %14 = load i8, ptr %13, align 1, !tbaa !29
  %15 = load ptr, ptr %4, align 8, !tbaa !3
  store i8 %14, ptr %15, align 1, !tbaa !29
  %16 = load ptr, ptr %5, align 8, !tbaa !3
  %17 = load i8, ptr %16, align 1, !tbaa !29
  %18 = sext i8 %17 to i32
  %19 = icmp eq i32 0, %18
  br i1 %19, label %20, label %21

20:                                               ; preds = %12
  br label %29

21:                                               ; preds = %12
  br label %22

22:                                               ; preds = %21
  %23 = load i64, ptr %7, align 8, !tbaa !30
  %24 = add i64 %23, 1
  store i64 %24, ptr %7, align 8, !tbaa !30
  %25 = load ptr, ptr %5, align 8, !tbaa !3
  %26 = getelementptr inbounds nuw i8, ptr %25, i32 1
  store ptr %26, ptr %5, align 8, !tbaa !3
  %27 = load ptr, ptr %4, align 8, !tbaa !3
  %28 = getelementptr inbounds nuw i8, ptr %27, i32 1
  store ptr %28, ptr %4, align 8, !tbaa !3
  br label %8, !llvm.loop !224

29:                                               ; preds = %20, %8
  %30 = load ptr, ptr %4, align 8, !tbaa !3
  store i8 0, ptr %30, align 1, !tbaa !29
  call void @llvm.lifetime.end.p0(i64 8, ptr %7) #15
  ret void
}

; Function Attrs: inlinehint nounwind uwtable
define internal void @pmix_bfrops_base_tma_load_key(ptr noundef %0, ptr noundef %1, ptr noundef %2) #1 {
  %4 = alloca ptr, align 8
  %5 = alloca ptr, align 8
  %6 = alloca ptr, align 8
  store ptr %0, ptr %4, align 8, !tbaa !3
  store ptr %1, ptr %5, align 8, !tbaa !3
  store ptr %2, ptr %6, align 8, !tbaa !8
  %7 = load ptr, ptr %4, align 8, !tbaa !3
  call void @llvm.memset.p0.i64(ptr align 1 %7, i8 0, i64 512, i1 false)
  %8 = load ptr, ptr %5, align 8, !tbaa !3
  %9 = icmp ne ptr null, %8
  br i1 %9, label %10, label %13

10:                                               ; preds = %3
  %11 = load ptr, ptr %4, align 8, !tbaa !3
  %12 = load ptr, ptr %5, align 8, !tbaa !3
  call void @pmix_strncpy(ptr noundef %11, ptr noundef %12, i64 noundef 511)
  br label %13

13:                                               ; preds = %10, %3
  ret void
}

; Function Attrs: inlinehint nounwind uwtable
define internal void @pmix_bfrops_base_tma_regattr_construct(ptr noundef %0, ptr noundef %1) #1 {
  %3 = alloca ptr, align 8
  %4 = alloca ptr, align 8
  store ptr %0, ptr %3, align 8, !tbaa !196
  store ptr %1, ptr %4, align 8, !tbaa !8
  %5 = load ptr, ptr %3, align 8, !tbaa !196
  %6 = getelementptr inbounds nuw %struct.pmix_regattr_t, ptr %5, i32 0, i32 0
  store ptr null, ptr %6, align 8, !tbaa !198
  %7 = load ptr, ptr %3, align 8, !tbaa !196
  %8 = getelementptr inbounds nuw %struct.pmix_regattr_t, ptr %7, i32 0, i32 1
  %9 = getelementptr inbounds [512 x i8], ptr %8, i64 0, i64 0
  %10 = load ptr, ptr %4, align 8, !tbaa !8
  call void @pmix_bfrops_base_tma_load_key(ptr noundef %9, ptr noundef null, ptr noundef %10)
  %11 = load ptr, ptr %3, align 8, !tbaa !196
  %12 = getelementptr inbounds nuw %struct.pmix_regattr_t, ptr %11, i32 0, i32 2
  store i16 0, ptr %12, align 8, !tbaa !200
  %13 = load ptr, ptr %3, align 8, !tbaa !196
  %14 = getelementptr inbounds nuw %struct.pmix_regattr_t, ptr %13, i32 0, i32 3
  store ptr null, ptr %14, align 8, !tbaa !201
  ret void
}

; Function Attrs: inlinehint nounwind uwtable
define internal ptr @pmix_tma_malloc(ptr noundef %0, i64 noundef %1) #1 {
  %3 = alloca ptr, align 8
  %4 = alloca ptr, align 8
  %5 = alloca i64, align 8
  store ptr %0, ptr %4, align 8, !tbaa !8
  store i64 %1, ptr %5, align 8, !tbaa !30
  %6 = load ptr, ptr %4, align 8, !tbaa !8
  %7 = icmp ne ptr null, %6
  br i1 %7, label %8, label %15

8:                                                ; preds = %2
  %9 = load ptr, ptr %4, align 8, !tbaa !8
  %10 = getelementptr inbounds nuw %struct.pmix_tma, ptr %9, i32 0, i32 0
  %11 = load ptr, ptr %10, align 8, !tbaa !226
  %12 = load ptr, ptr %4, align 8, !tbaa !8
  %13 = load i64, ptr %5, align 8, !tbaa !30
  %14 = call ptr %11(ptr noundef %12, i64 noundef %13)
  store ptr %14, ptr %3, align 8
  br label %18

15:                                               ; preds = %2
  %16 = load i64, ptr %5, align 8, !tbaa !30
  %17 = call noalias ptr @malloc(i64 noundef %16) #17
  store ptr %17, ptr %3, align 8
  br label %18

18:                                               ; preds = %15, %8
  %19 = load ptr, ptr %3, align 8
  ret ptr %19
}

; Function Attrs: inlinehint nounwind uwtable
define internal ptr @pmix_bfrops_base_tma_regattr_create(i64 noundef %0, ptr noundef %1) #1 {
  %3 = alloca ptr, align 8
  %4 = alloca i64, align 8
  %5 = alloca ptr, align 8
  %6 = alloca ptr, align 8
  %7 = alloca i64, align 8
  store i64 %0, ptr %4, align 8, !tbaa !30
  store ptr %1, ptr %5, align 8, !tbaa !8
  %8 = load i64, ptr %4, align 8, !tbaa !30
  %9 = icmp eq i64 0, %8
  br i1 %9, label %10, label %11

10:                                               ; preds = %2
  store ptr null, ptr %3, align 8
  br label %41

11:                                               ; preds = %2
  call void @llvm.lifetime.start.p0(i64 8, ptr %6) #15
  %12 = load ptr, ptr %5, align 8, !tbaa !8
  %13 = load i64, ptr %4, align 8, !tbaa !30
  %14 = mul i64 %13, 536
  %15 = call ptr @pmix_tma_malloc(ptr noundef %12, i64 noundef %14)
  store ptr %15, ptr %6, align 8, !tbaa !196
  %16 = load ptr, ptr %6, align 8, !tbaa !196
  %17 = icmp ne ptr null, %16
  %18 = xor i1 %17, true
  %19 = xor i1 %18, true
  %20 = zext i1 %19 to i32
  %21 = sext i32 %20 to i64
  %22 = call i64 @llvm.expect.i64(i64 %21, i64 1)
  %23 = icmp ne i64 %22, 0
  br i1 %23, label %24, label %39

24:                                               ; preds = %11
  call void @llvm.lifetime.start.p0(i64 8, ptr %7) #15
  store i64 0, ptr %7, align 8, !tbaa !30
  br label %25

25:                                               ; preds = %35, %24
  %26 = load i64, ptr %7, align 8, !tbaa !30
  %27 = load i64, ptr %4, align 8, !tbaa !30
  %28 = icmp ult i64 %26, %27
  br i1 %28, label %30, label %29

29:                                               ; preds = %25
  call void @llvm.lifetime.end.p0(i64 8, ptr %7) #15
  br label %38

30:                                               ; preds = %25
  %31 = load ptr, ptr %6, align 8, !tbaa !196
  %32 = load i64, ptr %7, align 8, !tbaa !30
  %33 = getelementptr inbounds nuw %struct.pmix_regattr_t, ptr %31, i64 %32
  %34 = load ptr, ptr %5, align 8, !tbaa !8
  call void @pmix_bfrops_base_tma_regattr_construct(ptr noundef %33, ptr noundef %34)
  br label %35

35:                                               ; preds = %30
  %36 = load i64, ptr %7, align 8, !tbaa !30
  %37 = add i64 %36, 1
  store i64 %37, ptr %7, align 8, !tbaa !30
  br label %25, !llvm.loop !202

38:                                               ; preds = %29
  br label %39

39:                                               ; preds = %38, %11
  %40 = load ptr, ptr %6, align 8, !tbaa !196
  store ptr %40, ptr %3, align 8
  call void @llvm.lifetime.end.p0(i64 8, ptr %6) #15
  br label %41

41:                                               ; preds = %39, %10
  %42 = load ptr, ptr %3, align 8
  ret ptr %42
}

; Function Attrs: nounwind uwtable
define ptr @PMIx_Regattr_create(i64 noundef %0) #0 {
  %2 = alloca i64, align 8
  store i64 %0, ptr %2, align 8, !tbaa !30
  %3 = load i64, ptr %2, align 8, !tbaa !30
  %4 = call ptr @pmix_bfrops_base_tma_regattr_create(i64 noundef %3, ptr noundef null)
  ret ptr %4
}